; Function Attrs: nounwind uwtable
define hidden void @zim_DOMNode_hasChildNodes(ptr nocapture noundef readonly %0, ptr nocapture noundef writeonly %1) local_unnamed_addr #0 {
  %3 = getelementptr inbounds i8, ptr %0, i64 44
  %4 = load i32, ptr %3, align 4
  %.not = icmp eq i32 %4, 0
  br i1 %.not, label %.critedge, label %5

5:                                                ; preds = %2
  tail call void @zend_wrong_parameters_none_error() #12
  %6 = load ptr, ptr getelementptr inbounds (%struct._zend_executor_globals, ptr @executor_globals, i64 0, i32 50), align 8
  %7 = icmp ne ptr %6, null
  tail call void @llvm.assume(i1 %7)
  br label %33

.critedge:                                        ; preds = %2
  %8 = getelementptr inbounds i8, ptr %0, i64 32
  %9 = load ptr, ptr %8, align 8
  %10 = getelementptr inbounds i8, ptr %9, i64 -24
  %11 = load ptr, ptr %10, align 8
  %12 = icmp eq ptr %11, null
  br i1 %12, label %13, label %21

13:                                               ; preds = %.critedge
  %14 = getelementptr inbounds i8, ptr %9, i64 16
  %15 = load ptr, ptr %14, align 8
  %16 = getelementptr inbounds i8, ptr %15, i64 8
  %17 = load ptr, ptr %16, align 8
  %18 = getelementptr inbounds i8, ptr %17, i64 24
  tail call void (ptr, ptr, ...) @zend_throw_error(ptr noundef null, ptr noundef nonnull @.str.11, ptr noundef nonnull %18) #12
  %19 = load ptr, ptr getelementptr inbounds (%struct._zend_executor_globals, ptr @executor_globals, i64 0, i32 50), align 8
  %20 = icmp ne ptr %19, null
  tail call void @llvm.assume(i1 %20)
  br label %33

21:                                               ; preds = %.critedge
  %22 = load ptr, ptr %11, align 8
  %23 = tail call i32 @dom_node_children_valid(ptr noundef %22) #12
  %24 = icmp eq i32 %23, -1
  br i1 %24, label %25, label %27

25:                                               ; preds = %21
  %26 = getelementptr inbounds i8, ptr %1, i64 8
  store i32 2, ptr %26, align 8
  br label %33

27:                                               ; preds = %21
  %28 = getelementptr inbounds i8, ptr %22, i64 24
  %29 = load ptr, ptr %28, align 8
  %.not11 = icmp eq ptr %29, null
  %30 = getelementptr inbounds i8, ptr %1, i64 8
  br i1 %.not11, label %32, label %31

31:                                               ; preds = %27
  store i32 3, ptr %30, align 8
  br label %33

32:                                               ; preds = %27
  store i32 2, ptr %30, align 8
  br label %33

33:                                               ; preds = %32, %31, %25, %13, %5
  ret void
}